; Function Attrs: nounwind uwtable
define nonnull ptr @l_Std_Time_HourMarker_ofOrdinal___boxed(ptr noundef %0) local_unnamed_addr #1 {
  %2 = load ptr, ptr @l_Std_Time_HourMarker_ofOrdinal___closed__1, align 8, !tbaa !10
  %3 = ptrtoint ptr %2 to i64
  %4 = and i64 %3, 1
  %.not.i.i.i = icmp eq i64 %4, 0
  %.pre5 = ptrtoint ptr %0 to i64
  %.pre = and i64 %.pre5, 1
  %5 = icmp eq i64 %.pre, 0
  br i1 %.not.i.i.i, label %l_Std_Time_HourMarker_ofOrdinal.exit, label %6, !prof !15

6:                                                ; preds = %1
  br i1 %5, label %l_Std_Time_HourMarker_ofOrdinal.exit.thread9, label %l_Std_Time_HourMarker_ofOrdinal.exit.thread, !prof !15

l_Std_Time_HourMarker_ofOrdinal.exit.thread9:     ; preds = %6
  %7 = tail call zeroext i1 @lean_int_big_le(ptr noundef %2, ptr noundef %0) #7
  br label %14

l_Std_Time_HourMarker_ofOrdinal.exit.thread:      ; preds = %6
  %8 = lshr i64 %3, 1
  %9 = trunc i64 %8 to i32
  %10 = lshr i64 %.pre5, 1
  %11 = trunc i64 %10 to i32
  %12 = icmp sle i32 %9, %11
  br label %lean_dec.exit

l_Std_Time_HourMarker_ofOrdinal.exit:             ; preds = %1
  %13 = tail call zeroext i1 @lean_int_big_le(ptr noundef %2, ptr noundef %0) #7
  br i1 %5, label %14, label %lean_dec.exit

14:                                               ; preds = %l_Std_Time_HourMarker_ofOrdinal.exit.thread9, %l_Std_Time_HourMarker_ofOrdinal.exit
  %15 = phi i1 [ %7, %l_Std_Time_HourMarker_ofOrdinal.exit.thread9 ], [ %13, %l_Std_Time_HourMarker_ofOrdinal.exit ]
  %16 = load i32, ptr %0, align 4, !tbaa !4
  %17 = icmp sgt i32 %16, 1
  br i1 %17, label %18, label %20, !prof !9

18:                                               ; preds = %14
  %19 = add nsw i32 %16, -1
  store i32 %19, ptr %0, align 4, !tbaa !4
  br label %lean_dec.exit

20:                                               ; preds = %14
  %.not.i = icmp eq i32 %16, 0
  br i1 %.not.i, label %lean_dec.exit, label %21

21:                                               ; preds = %20
  tail call void @lean_dec_ref_cold(ptr noundef nonnull %0) #7
  br label %lean_dec.exit

lean_dec.exit:                                    ; preds = %l_Std_Time_HourMarker_ofOrdinal.exit.thread, %21, %20, %18, %l_Std_Time_HourMarker_ofOrdinal.exit
  %.0.i.i.i8 = phi i1 [ %12, %l_Std_Time_HourMarker_ofOrdinal.exit.thread ], [ %15, %21 ], [ %15, %20 ], [ %15, %18 ], [ %13, %l_Std_Time_HourMarker_ofOrdinal.exit ]
  %22 = select i1 %.0.i.i.i8, ptr inttoptr (i64 3 to ptr), ptr inttoptr (i64 1 to ptr)
  ret ptr %22
}